; Function Attrs: mustprogress uwtable
define noalias noundef nonnull ptr @lean_io_current_dir(ptr noundef readnone captures(none) %0) local_unnamed_addr #0 {
  %2 = alloca [4096 x i8], align 16
  call void @llvm.lifetime.start.p0(i64 4096, ptr nonnull %2) #27
  %3 = call ptr @getcwd(ptr noundef nonnull %2, i64 noundef 4096) #27
  %.not = icmp eq ptr %3, null
  br i1 %.not, label %9, label %4

4:                                                ; preds = %1
  %5 = call noundef ptr @lean_mk_string(ptr noundef nonnull %3)
  call void @lean_inc_heartbeat()
  %6 = call noalias ptr @mi_malloc_small(i64 noundef 24) #27
  %7 = icmp eq ptr %6, null
  br i1 %7, label %8, label %_ZN4lean15io_result_mk_okEP11lean_object.exit

8:                                                ; preds = %4
  call void @lean_internal_panic_out_of_memory() #28
  unreachable

9:                                                ; preds = %1
  %10 = call noundef ptr @lean_mk_string(ptr noundef nonnull @.str.23)
  %11 = call ptr @lean_mk_io_user_error(ptr noundef %10)
  call void @lean_inc_heartbeat()
  %12 = call noalias ptr @mi_malloc_small(i64 noundef 24) #27
  %13 = icmp eq ptr %12, null
  br i1 %13, label %14, label %_ZN4lean15io_result_mk_okEP11lean_object.exit

14:                                               ; preds = %9
  call void @lean_internal_panic_out_of_memory() #28
  unreachable

_ZN4lean15io_result_mk_okEP11lean_object.exit:    ; preds = %9, %4
  %.sink10 = phi ptr [ %6, %4 ], [ %12, %9 ]
  %.sink7 = phi i32 [ 131096, %4 ], [ 16908312, %9 ]
  %.sink = phi ptr [ %5, %4 ], [ %11, %9 ]
  %15 = getelementptr inbounds nuw i8, ptr %.sink10, i64 4
  store i32 1, ptr %.sink10, align 4, !tbaa !7
  store i32 %.sink7, ptr %15, align 4
  %16 = getelementptr inbounds nuw i8, ptr %.sink10, i64 8
  store ptr %.sink, ptr %16, align 8, !tbaa !3
  %17 = getelementptr inbounds nuw i8, ptr %.sink10, i64 16
  store ptr inttoptr (i64 1 to ptr), ptr %17, align 8, !tbaa !3
  call void @llvm.lifetime.end.p0(i64 4096, ptr nonnull %2) #27
  ret ptr %.sink10
}